target datalayout = "e-m:e-p270:32:32-p271:32:32-p272:64:64-i64:64-i128:128-f80:128-n8:16:32:64-S128"
target triple = "x86_64-pc-linux-gnu"

; Function Attrs: mustprogress uwtable
define noundef zeroext i1 @_ZN3gmx28TrajectoryAnalysisModuleData4Impl13isInitializedERKNS_12AnalysisDataE(ptr noundef nonnull align 8 dereferenceable(24) %0) #1 align 2 {
  %2 = alloca i1, align 1
  %3 = alloca ptr, align 8
  %4 = alloca i32, align 4
  %5 = alloca i32, align 4
  store ptr %0, ptr %3, align 8, !tbaa !50
  call void @llvm.lifetime.start.p0(i64 4, ptr %4) #21
  store i32 0, ptr %4, align 4, !tbaa !51
  br label %6

6:                                                ; preds = %19, %1
  %7 = load i32, ptr %4, align 4, !tbaa !51
  %8 = load ptr, ptr %3, align 8, !tbaa !50
  %9 = call noundef i32 @_ZNK3gmx20AbstractAnalysisData12dataSetCountEv(ptr noundef nonnull align 8 dereferenceable(16) %8)
  %10 = icmp slt i32 %7, %9
  br i1 %10, label %12, label %11

11:                                               ; preds = %6
  store i32 2, ptr %5, align 4
  br label %22

12:                                               ; preds = %6
  %13 = load ptr, ptr %3, align 8, !tbaa !50
  %14 = load i32, ptr %4, align 4, !tbaa !51
  %15 = call noundef i32 @_ZNK3gmx20AbstractAnalysisData11columnCountEi(ptr noundef nonnull align 8 dereferenceable(16) %13, i32 noundef %14)
  %16 = icmp sgt i32 %15, 0
  br i1 %16, label %17, label %18

17:                                               ; preds = %12
  store i1 true, ptr %2, align 1
  store i32 1, ptr %5, align 4
  br label %22

18:                                               ; preds = %12
  br label %19

19:                                               ; preds = %18
  %20 = load i32, ptr %4, align 4, !tbaa !51
  %21 = add nsw i32 %20, 1
  store i32 %21, ptr %4, align 4, !tbaa !51
  br label %6, !llvm.loop !53

22:                                               ; preds = %17, %11
  call void @llvm.lifetime.end.p0(i64 4, ptr %4) #21
  %23 = load i32, ptr %5, align 4
  switch i32 %23, label %27 [
    i32 2, label %24
    i32 1, label %25
  ]

24:                                               ; preds = %22
  store i1 false, ptr %2, align 1
  br label %25

25:                                               ; preds = %24, %22
  %26 = load i1, ptr %2, align 1
  ret i1 %26

27:                                               ; preds = %22
  unreachable
}