; Function Attrs: mustprogress uwtable
define noundef zeroext i1 @_ZN3gmx28TrajectoryAnalysisModuleData4Impl13isInitializedERKNS_12AnalysisDataE(ptr noundef nonnull align 8 dereferenceable(24) %0) local_unnamed_addr #2 align 2 {
  %2 = tail call noundef i32 @_ZNK3gmx20AbstractAnalysisData12dataSetCountEv(ptr noundef nonnull align 8 dereferenceable(16) %0)
  %.not8 = icmp sgt i32 %2, 0
  br i1 %.not8, label %.lr.ph, label %._crit_edge

3:                                                ; preds = %.lr.ph
  %4 = add nuw nsw i32 %.069, 1
  %5 = tail call noundef i32 @_ZNK3gmx20AbstractAnalysisData12dataSetCountEv(ptr noundef nonnull align 8 dereferenceable(16) %0)
  %.not = icmp slt i32 %4, %5
  br i1 %.not, label %.lr.ph, label %._crit_edge, !llvm.loop !33

.lr.ph:                                           ; preds = %1, %3
  %.069 = phi i32 [ %4, %3 ], [ 0, %1 ]
  %6 = tail call noundef i32 @_ZNK3gmx20AbstractAnalysisData11columnCountEi(ptr noundef nonnull align 8 dereferenceable(16) %0, i32 noundef %.069)
  %7 = icmp sgt i32 %6, 0
  br i1 %7, label %._crit_edge, label %3

._crit_edge:                                      ; preds = %3, %.lr.ph, %1
  %.not.lcssa = phi i1 [ false, %1 ], [ %7, %.lr.ph ], [ %7, %3 ]
  ret i1 %.not.lcssa
}